target datalayout = "e-m:e-p270:32:32-p271:32:32-p272:64:64-i64:64-i128:128-f80:128-n8:16:32:64-S128"
target triple = "x86_64-pc-linux-gnu"

%struct.model_map = type { ptr, ptr, ptr, ptr, ptr }
%struct.dt_image_t = type { i32, i32, float, float, float, float, float, float, float, [64 x i8], [64 x i8], [128 x i8], [64 x i8], [64 x i8], [64 x i8], [64 x i8], i64, i32, %union.dt_image_correction_data_t, [64 x i8], [64 x i8], [64 x i8], [128 x i8], i32, [256 x i8], i32, i32, i32, i32, i32, i32, i32, i32, i32, i32, float, i32, i32, i32, i32, i32, i32, i64, i64, i64, i64, i32, [12 x i8], %struct.dt_iop_buffer_dsc_t, [9 x float], ptr, i32, i32, %struct.dt_image_raw_parameters_t, %struct.dt_image_geoloc_t, %struct._color_harmony_t, i16, [4 x i16], i32, i32, float, float, [4 x float], [4 x [3 x float]], [4 x float], ptr, ptr, i32, i32, [8 x i8] }
%union.dt_image_correction_data_t = type { %struct.anon.0 }
%struct.anon.0 = type { i32, float, [11 x float], [11 x float], [11 x float], [11 x float], [11 x float] }
%struct.dt_iop_buffer_dsc_t = type { i32, i32, i32, [6 x [6 x i8]], %struct.anon.3, [12 x i8], %struct.anon.4, [4 x float], i32, [12 x i8] }
%struct.anon.3 = type { i16, i16 }
%struct.anon.4 = type { i32, [12 x i8], [4 x float] }
%struct.dt_image_raw_parameters_t = type { i32 }
%struct.dt_image_geoloc_t = type { double, double, double }
%struct._color_harmony_t = type { i32, i32, i32 }
%struct._GList = type { ptr, ptr, ptr }

@warning_missing_support_seen = global ptr null, align 8
@.str.61 = private unnamed_addr constant [77 x i8] c"<span foreground='red'><b>WARNING</b></span>: camera is not fully supported!\00", align 1
@.str.62 = private unnamed_addr constant [97 x i8] c"colors for `%s' could be misrepresented,\0Aand edits might not be compatible with future versions.\00", align 1
@.str.63 = private unnamed_addr constant [6 x i8] c"<big>\00", align 1
@.str.64 = private unnamed_addr constant [3 x i8] c"\0A\0A\00", align 1
@.str.65 = private unnamed_addr constant [7 x i8] c"</big>\00", align 1

; Function Attrs: nounwind uwtable
define i32 @dt_libraw_lookup_makermodel(ptr noundef %0, ptr noundef %1, ptr noundef %2, i32 noundef %3, ptr noundef %4, i32 noundef %5, ptr noundef %6, i32 noundef %7) #0 {
  %9 = alloca i32, align 4
  %10 = alloca ptr, align 8
  %11 = alloca ptr, align 8
  %12 = alloca ptr, align 8
  %13 = alloca i32, align 4
  %14 = alloca ptr, align 8
  %15 = alloca i32, align 4
  %16 = alloca ptr, align 8
  %17 = alloca i32, align 4
  %18 = alloca i32, align 4
  %19 = alloca i32, align 4
  store ptr %0, ptr %10, align 8, !tbaa !13
  store ptr %1, ptr %11, align 8, !tbaa !13
  store ptr %2, ptr %12, align 8, !tbaa !13
  store i32 %3, ptr %13, align 4, !tbaa !18
  store ptr %4, ptr %14, align 8, !tbaa !13
  store i32 %5, ptr %15, align 4, !tbaa !18
  store ptr %6, ptr %16, align 8, !tbaa !13
  store i32 %7, ptr %17, align 4, !tbaa !18
  call void @llvm.lifetime.start.p0(i64 4, ptr %18) #7
  store i32 0, ptr %18, align 4, !tbaa !18
  br label %20

20:                                               ; preds = %72, %8
  %21 = load i32, ptr %18, align 4, !tbaa !18
  %22 = sext i32 %21 to i64
  %23 = icmp ult i64 %22, 30
  br i1 %23, label %25, label %24

24:                                               ; preds = %20
  store i32 2, ptr %19, align 4
  br label %75

25:                                               ; preds = %20
  %26 = load ptr, ptr %10, align 8, !tbaa !13
  %27 = load i32, ptr %18, align 4, !tbaa !18
  %28 = sext i32 %27 to i64
  %29 = getelementptr inbounds [30 x %struct.model_map], ptr @modelMap, i64 0, i64 %28
  %30 = getelementptr inbounds nuw %struct.model_map, ptr %29, i32 0, i32 0
  %31 = load ptr, ptr %30, align 8, !tbaa !20
  %32 = call i32 @g_strcmp0(ptr noundef %26, ptr noundef %31)
  %33 = icmp ne i32 %32, 0
  br i1 %33, label %71, label %34

34:                                               ; preds = %25
  %35 = load ptr, ptr %11, align 8, !tbaa !13
  %36 = load i32, ptr %18, align 4, !tbaa !18
  %37 = sext i32 %36 to i64
  %38 = getelementptr inbounds [30 x %struct.model_map], ptr @modelMap, i64 0, i64 %37
  %39 = getelementptr inbounds nuw %struct.model_map, ptr %38, i32 0, i32 1
  %40 = load ptr, ptr %39, align 8, !tbaa !22
  %41 = call i32 @g_strcmp0(ptr noundef %35, ptr noundef %40)
  %42 = icmp ne i32 %41, 0
  br i1 %42, label %71, label %43

43:                                               ; preds = %34
  %44 = load ptr, ptr %12, align 8, !tbaa !13
  %45 = load i32, ptr %18, align 4, !tbaa !18
  %46 = sext i32 %45 to i64
  %47 = getelementptr inbounds [30 x %struct.model_map], ptr @modelMap, i64 0, i64 %46
  %48 = getelementptr inbounds nuw %struct.model_map, ptr %47, i32 0, i32 2
  %49 = load ptr, ptr %48, align 8, !tbaa !23
  %50 = load i32, ptr %13, align 4, !tbaa !18
  %51 = sext i32 %50 to i64
  %52 = call i64 @g_strlcpy(ptr noundef %44, ptr noundef %49, i64 noundef %51)
  %53 = load ptr, ptr %14, align 8, !tbaa !13
  %54 = load i32, ptr %18, align 4, !tbaa !18
  %55 = sext i32 %54 to i64
  %56 = getelementptr inbounds [30 x %struct.model_map], ptr @modelMap, i64 0, i64 %55
  %57 = getelementptr inbounds nuw %struct.model_map, ptr %56, i32 0, i32 3
  %58 = load ptr, ptr %57, align 8, !tbaa !24
  %59 = load i32, ptr %15, align 4, !tbaa !18
  %60 = sext i32 %59 to i64
  %61 = call i64 @g_strlcpy(ptr noundef %53, ptr noundef %58, i64 noundef %60)
  %62 = load ptr, ptr %16, align 8, !tbaa !13
  %63 = load i32, ptr %18, align 4, !tbaa !18
  %64 = sext i32 %63 to i64
  %65 = getelementptr inbounds [30 x %struct.model_map], ptr @modelMap, i64 0, i64 %64
  %66 = getelementptr inbounds nuw %struct.model_map, ptr %65, i32 0, i32 4
  %67 = load ptr, ptr %66, align 8, !tbaa !25
  %68 = load i32, ptr %17, align 4, !tbaa !18
  %69 = sext i32 %68 to i64
  %70 = call i64 @g_strlcpy(ptr noundef %62, ptr noundef %67, i64 noundef %69)
  store i32 1, ptr %9, align 4
  store i32 1, ptr %19, align 4
  br label %75

71:                                               ; preds = %34, %25
  br label %72

72:                                               ; preds = %71
  %73 = load i32, ptr %18, align 4, !tbaa !18
  %74 = add nsw i32 %73, 1
  store i32 %74, ptr %18, align 4, !tbaa !18
  br label %20

75:                                               ; preds = %43, %24
  call void @llvm.lifetime.end.p0(i64 4, ptr %18) #7
  %76 = load i32, ptr %19, align 4
  switch i32 %76, label %80 [
    i32 2, label %77
    i32 1, label %78
  ]

77:                                               ; preds = %75
  store i32 0, ptr %9, align 4
  br label %78

78:                                               ; preds = %77, %75
  %79 = load i32, ptr %9, align 4
  ret i32 %79

80:                                               ; preds = %75
  unreachable
}

; Function Attrs: nounwind uwtable
define internal i32 @is_in_glist(ptr noundef %0, ptr noundef %1) #0 {
  %3 = alloca i32, align 4
  %4 = alloca ptr, align 8
  %5 = alloca ptr, align 8
  %6 = alloca ptr, align 8
  %7 = alloca i32, align 4
  store ptr %0, ptr %4, align 8, !tbaa !11
  store ptr %1, ptr %5, align 8, !tbaa !13
  call void @llvm.lifetime.start.p0(i64 8, ptr %6) #7
  %8 = load ptr, ptr %4, align 8, !tbaa !11
  store ptr %8, ptr %6, align 8, !tbaa !11
  br label %9

9:                                                ; preds = %22, %2
  %10 = load ptr, ptr %6, align 8, !tbaa !11
  %11 = icmp ne ptr %10, null
  br i1 %11, label %13, label %12

12:                                               ; preds = %9
  store i32 2, ptr %7, align 4
  br label %26

13:                                               ; preds = %9
  %14 = load ptr, ptr %6, align 8, !tbaa !11
  %15 = getelementptr inbounds nuw %struct._GList, ptr %14, i32 0, i32 0
  %16 = load ptr, ptr %15, align 8, !tbaa !15
  %17 = load ptr, ptr %5, align 8, !tbaa !13
  %18 = call i32 @g_strcmp0(ptr noundef %16, ptr noundef %17)
  %19 = icmp ne i32 %18, 0
  br i1 %19, label %21, label %20

20:                                               ; preds = %13
  store i32 1, ptr %3, align 4
  store i32 1, ptr %7, align 4
  br label %26

21:                                               ; preds = %13
  br label %22

22:                                               ; preds = %21
  %23 = load ptr, ptr %6, align 8, !tbaa !11
  %24 = getelementptr inbounds nuw %struct._GList, ptr %23, i32 0, i32 1
  %25 = load ptr, ptr %24, align 8, !tbaa !17
  store ptr %25, ptr %6, align 8, !tbaa !11
  br label %9

26:                                               ; preds = %20, %12
  call void @llvm.lifetime.end.p0(i64 8, ptr %6) #7
  %27 = load i32, ptr %7, align 4
  switch i32 %27, label %31 [
    i32 2, label %28
    i32 1, label %29
  ]

28:                                               ; preds = %26
  store i32 0, ptr %3, align 4
  br label %29

29:                                               ; preds = %28, %26
  %30 = load i32, ptr %3, align 4
  ret i32 %30

31:                                               ; preds = %26
  unreachable
}

; Function Attrs: nounwind uwtable
define void @_check_libraw_missing_support(ptr noundef %0) #0 {
  %2 = alloca ptr, align 8
  %3 = alloca [64 x i8], align 16
  %4 = alloca [64 x i8], align 16
  %5 = alloca [64 x i8], align 16
  %6 = alloca ptr, align 8
  %7 = alloca ptr, align 8
  %8 = alloca ptr, align 8
  %9 = alloca ptr, align 8
  store ptr %0, ptr %2, align 8, !tbaa !6
  call void @llvm.lifetime.start.p0(i64 64, ptr %3) #7
  call void @llvm.lifetime.start.p0(i64 64, ptr %4) #7
  call void @llvm.lifetime.start.p0(i64 64, ptr %5) #7
  %10 = load ptr, ptr @warning_missing_support_seen, align 8, !tbaa !11
  %11 = load ptr, ptr %2, align 8, !tbaa !6
  %12 = getelementptr inbounds nuw %struct.dt_image_t, ptr %11, i32 0, i32 10
  %13 = getelementptr inbounds [64 x i8], ptr %12, i64 0, i64 0
  %14 = call i32 @is_in_glist(ptr noundef %10, ptr noundef %13)
  %15 = icmp ne i32 %14, 0
  br i1 %15, label %48, label %16

16:                                               ; preds = %1
  %17 = load ptr, ptr %2, align 8, !tbaa !6
  %18 = getelementptr inbounds nuw %struct.dt_image_t, ptr %17, i32 0, i32 9
  %19 = getelementptr inbounds [64 x i8], ptr %18, i64 0, i64 0
  %20 = load ptr, ptr %2, align 8, !tbaa !6
  %21 = getelementptr inbounds nuw %struct.dt_image_t, ptr %20, i32 0, i32 10
  %22 = getelementptr inbounds [64 x i8], ptr %21, i64 0, i64 0
  %23 = getelementptr inbounds [64 x i8], ptr %3, i64 0, i64 0
  %24 = getelementptr inbounds [64 x i8], ptr %4, i64 0, i64 0
  %25 = getelementptr inbounds [64 x i8], ptr %5, i64 0, i64 0
  %26 = call i32 @dt_libraw_lookup_makermodel(ptr noundef %19, ptr noundef %22, ptr noundef %23, i32 noundef 64, ptr noundef %24, i32 noundef 64, ptr noundef %25, i32 noundef 64)
  %27 = icmp ne i32 %26, 0
  br i1 %27, label %48, label %28

28:                                               ; preds = %16
  call void @llvm.lifetime.start.p0(i64 8, ptr %6) #7
  %29 = load ptr, ptr %2, align 8, !tbaa !6
  %30 = getelementptr inbounds nuw %struct.dt_image_t, ptr %29, i32 0, i32 10
  %31 = getelementptr inbounds [64 x i8], ptr %30, i64 0, i64 0
  %32 = call noalias ptr @g_strdup(ptr noundef %31)
  store ptr %32, ptr %6, align 8, !tbaa !13
  %33 = load ptr, ptr @warning_missing_support_seen, align 8, !tbaa !11
  %34 = load ptr, ptr %6, align 8, !tbaa !13
  %35 = call ptr @g_list_append(ptr noundef %33, ptr noundef %34)
  store ptr %35, ptr @warning_missing_support_seen, align 8, !tbaa !11
  call void @llvm.lifetime.start.p0(i64 8, ptr %7) #7
  %36 = call ptr @dcgettext(ptr noundef null, ptr noundef @.str.61, i32 noundef 5) #7
  store ptr %36, ptr %7, align 8, !tbaa !13
  call void @llvm.lifetime.start.p0(i64 8, ptr %8) #7
  %37 = call ptr @dcgettext(ptr noundef null, ptr noundef @.str.62, i32 noundef 5) #7
  %38 = load ptr, ptr %2, align 8, !tbaa !6
  %39 = getelementptr inbounds nuw %struct.dt_image_t, ptr %38, i32 0, i32 10
  %40 = getelementptr inbounds [64 x i8], ptr %39, i64 0, i64 0
  %41 = call noalias ptr (ptr, ...) @g_strdup_printf(ptr noundef %37, ptr noundef %40)
  store ptr %41, ptr %8, align 8, !tbaa !13
  call void @llvm.lifetime.start.p0(i64 8, ptr %9) #7
  %42 = load ptr, ptr %7, align 8, !tbaa !13
  %43 = load ptr, ptr %8, align 8, !tbaa !13
  %44 = call noalias ptr (ptr, ...) @g_strconcat(ptr noundef @.str.63, ptr noundef %42, ptr noundef @.str.64, ptr noundef %43, ptr noundef @.str.65, ptr noundef null)
  store ptr %44, ptr %9, align 8, !tbaa !13
  %45 = load ptr, ptr %8, align 8, !tbaa !13
  call void @g_free(ptr noundef %45)
  %46 = load ptr, ptr %9, align 8, !tbaa !13
  call void (ptr, ...) @dt_control_log(ptr noundef %46, ptr noundef null)
  %47 = load ptr, ptr %9, align 8, !tbaa !13
  call void @g_free(ptr noundef %47)
  call void @llvm.lifetime.end.p0(i64 8, ptr %9) #7
  call void @llvm.lifetime.end.p0(i64 8, ptr %8) #7
  call void @llvm.lifetime.end.p0(i64 8, ptr %7) #7
  call void @llvm.lifetime.end.p0(i64 8, ptr %6) #7
  br label %48

48:                                               ; preds = %28, %16, %1
  call void @llvm.lifetime.end.p0(i64 64, ptr %5) #7
  call void @llvm.lifetime.end.p0(i64 64, ptr %4) #7
  call void @llvm.lifetime.end.p0(i64 64, ptr %3) #7
  ret void
}