; Function Attrs: nounwind uwtable
define void @_check_libraw_missing_support(ptr noundef %0) local_unnamed_addr #0 {
  %2 = alloca [64 x i8], align 16
  %3 = alloca [64 x i8], align 16
  %4 = alloca [64 x i8], align 16
  call void @llvm.lifetime.start.p0(i64 64, ptr nonnull %2) #5
  call void @llvm.lifetime.start.p0(i64 64, ptr nonnull %3) #5
  call void @llvm.lifetime.start.p0(i64 64, ptr nonnull %4) #5
  %5 = load ptr, ptr @warning_missing_support_seen, align 8, !tbaa !6
  %6 = getelementptr inbounds nuw i8, ptr %0, i64 100
  %.not9.not.i = icmp eq ptr %5, null
  br i1 %.not9.not.i, label %.loopexit, label %.lr.ph.i

.lr.ph.i:                                         ; preds = %1, %9
  %.0610.i = phi ptr [ %11, %9 ], [ %5, %1 ]
  %7 = load ptr, ptr %.0610.i, align 8, !tbaa !11
  %8 = tail call i32 @g_strcmp0(ptr noundef %7, ptr noundef nonnull %6) #5
  %.not8.i = icmp eq i32 %8, 0
  br i1 %.not8.i, label %is_in_glist.exit, label %9

9:                                                ; preds = %.lr.ph.i
  %10 = getelementptr inbounds nuw i8, ptr %.0610.i, i64 8
  %11 = load ptr, ptr %10, align 8, !tbaa !13
  %.not.not.i = icmp eq ptr %11, null
  br i1 %.not.not.i, label %.loopexit, label %.lr.ph.i

.loopexit:                                        ; preds = %9, %1
  %12 = getelementptr inbounds nuw i8, ptr %0, i64 36
  br label %13

13:                                               ; preds = %20, %.loopexit
  %indvars.iv.i = phi i64 [ 0, %.loopexit ], [ %indvars.iv.next.i, %20 ]
  %14 = tail call i32 @g_strcmp0(ptr noundef nonnull %12, ptr noundef nonnull @.str) #5
  %.not.i = icmp eq i32 %14, 0
  br i1 %.not.i, label %15, label %20

15:                                               ; preds = %13
  %16 = getelementptr inbounds nuw [30 x %struct.model_map], ptr @modelMap, i64 0, i64 %indvars.iv.i
  %17 = getelementptr inbounds nuw i8, ptr %16, i64 8
  %18 = load ptr, ptr %17, align 8, !tbaa !14
  %19 = tail call i32 @g_strcmp0(ptr noundef nonnull %6, ptr noundef %18) #5
  %.not19.i = icmp eq i32 %19, 0
  br i1 %.not19.i, label %dt_libraw_lookup_makermodel.exit, label %20

20:                                               ; preds = %15, %13
  %indvars.iv.next.i = add nuw nsw i64 %indvars.iv.i, 1
  %exitcond.not.i = icmp eq i64 %indvars.iv.next.i, 30
  br i1 %exitcond.not.i, label %28, label %13

dt_libraw_lookup_makermodel.exit:                 ; preds = %15
  %21 = call i64 @g_strlcpy(ptr noundef nonnull %2, ptr noundef nonnull @.str, i64 noundef 64) #5
  %22 = getelementptr inbounds nuw i8, ptr %16, i64 24
  %23 = load ptr, ptr %22, align 8, !tbaa !17
  %24 = call i64 @g_strlcpy(ptr noundef nonnull %3, ptr noundef %23, i64 noundef 64) #5
  %25 = getelementptr inbounds nuw i8, ptr %16, i64 32
  %26 = load ptr, ptr %25, align 8, !tbaa !18
  %27 = call i64 @g_strlcpy(ptr noundef nonnull %4, ptr noundef %26, i64 noundef 64) #5
  br label %is_in_glist.exit

28:                                               ; preds = %20
  %29 = tail call noalias ptr @g_strdup(ptr noundef nonnull %6) #5
  %30 = load ptr, ptr @warning_missing_support_seen, align 8, !tbaa !6
  %31 = tail call ptr @g_list_append(ptr noundef %30, ptr noundef %29) #5
  store ptr %31, ptr @warning_missing_support_seen, align 8, !tbaa !6
  %32 = tail call ptr @dcgettext(ptr noundef null, ptr noundef nonnull @.str.61, i32 noundef 5) #5
  %33 = tail call ptr @dcgettext(ptr noundef null, ptr noundef nonnull @.str.62, i32 noundef 5) #5
  %34 = tail call noalias ptr (ptr, ...) @g_strdup_printf(ptr noundef %33, ptr noundef nonnull %6) #5
  %35 = tail call noalias ptr (ptr, ...) @g_strconcat(ptr noundef nonnull @.str.63, ptr noundef %32, ptr noundef nonnull @.str.64, ptr noundef %34, ptr noundef nonnull @.str.65, ptr noundef null) #5
  tail call void @g_free(ptr noundef %34) #5
  tail call void (ptr, ...) @dt_control_log(ptr noundef %35, ptr noundef null) #5
  tail call void @g_free(ptr noundef %35) #5
  br label %is_in_glist.exit

is_in_glist.exit:                                 ; preds = %.lr.ph.i, %dt_libraw_lookup_makermodel.exit, %28
  call void @llvm.lifetime.end.p0(i64 64, ptr nonnull %4) #5
  call void @llvm.lifetime.end.p0(i64 64, ptr nonnull %3) #5
  call void @llvm.lifetime.end.p0(i64 64, ptr nonnull %2) #5
  ret void
}